; Function Attrs: mustprogress uwtable
define noundef zeroext i8 @_ZN8proxygen12QPACKEncoder22onInsertCountIncrementEj(ptr noundef nonnull align 8 dereferenceable(624) %this, i32 noundef %inserts) local_unnamed_addr #3 align 2 {
entry:
  %cmp = icmp eq i32 %inserts, 0
  br i1 %cmp, label %return, label %lor.lhs.false

lor.lhs.false:                                    ; preds = %entry
  %add.ptr = getelementptr inbounds i8, ptr %this, i64 152
  %call = tail call noundef zeroext i1 @_ZN8proxygen16QPACKHeaderTable22onInsertCountIncrementEj(ptr noundef nonnull align 8 dereferenceable(104) %add.ptr, i32 noundef %inserts)
  %spec.select = select i1 %call, i8 0, i8 12
  br label %return

return:                                           ; preds = %lor.lhs.false, %entry
  %retval.0 = phi i8 [ 12, %entry ], [ %spec.select, %lor.lhs.false ]
  ret i8 %retval.0
}